; Function Attrs: nounwind uwtable
define ptr @evdns_add_server_port_with_base(ptr noundef %0, i32 noundef %1, i32 noundef %2, ptr noundef %3, ptr noundef %4) local_unnamed_addr #2 {
  %.not = icmp eq i32 %2, 0
  br i1 %.not, label %6, label %30

6:                                                ; preds = %5
  %7 = tail call ptr @event_mm_malloc_(i64 noundef 216) #21
  %.not29 = icmp eq ptr %7, null
  br i1 %.not29, label %30, label %8

8:                                                ; preds = %6
  %9 = getelementptr inbounds nuw i8, ptr %7, i64 8
  tail call void @llvm.memset.p0.i64(ptr noundef nonnull align 8 dereferenceable(216) %9, i8 0, i64 208, i1 false)
  store i32 %1, ptr %7, align 8
  %10 = getelementptr inbounds nuw i8, ptr %7, i64 4
  store i32 1, ptr %10, align 4
  %11 = getelementptr inbounds nuw i8, ptr %7, i64 9
  store i8 0, ptr %11, align 1
  %12 = getelementptr inbounds nuw i8, ptr %7, i64 16
  store ptr %3, ptr %12, align 8
  %13 = getelementptr inbounds nuw i8, ptr %7, i64 24
  store ptr %4, ptr %13, align 8
  %14 = getelementptr inbounds nuw i8, ptr %7, i64 160
  store ptr %0, ptr %14, align 8
  %15 = getelementptr inbounds nuw i8, ptr %7, i64 188
  store i32 10, ptr %15, align 4
  %16 = getelementptr inbounds nuw i8, ptr %7, i64 192
  store i64 10, ptr %16, align 8
  %17 = getelementptr inbounds nuw i8, ptr %7, i64 184
  store i32 0, ptr %17, align 8
  %18 = getelementptr inbounds nuw i8, ptr %7, i64 32
  %19 = tail call i32 @event_assign(ptr noundef nonnull %18, ptr noundef %0, i32 noundef %1, i16 noundef signext 18, ptr noundef nonnull @server_port_ready_callback, ptr noundef nonnull %7) #21
  %20 = tail call i32 @event_add(ptr noundef nonnull %18, ptr noundef null) #21
  %21 = icmp slt i32 %20, 0
  br i1 %21, label %22, label %23

22:                                               ; preds = %8
  tail call void @event_mm_free_(ptr noundef nonnull %7) #21
  br label %30

23:                                               ; preds = %8
  %24 = load ptr, ptr getelementptr inbounds nuw (i8, ptr @evthread_lock_fns_, i64 8), align 8
  %.not30 = icmp eq ptr %24, null
  br i1 %.not30, label %27, label %25

25:                                               ; preds = %23
  %26 = tail call ptr %24(i32 noundef 1) #21
  br label %27

27:                                               ; preds = %23, %25
  %28 = phi ptr [ %26, %25 ], [ null, %23 ]
  %29 = getelementptr inbounds nuw i8, ptr %7, i64 208
  store ptr %28, ptr %29, align 8
  br label %30

30:                                               ; preds = %6, %5, %27, %22
  %.0 = phi ptr [ null, %22 ], [ %7, %27 ], [ null, %5 ], [ null, %6 ]
  ret ptr %.0
}